target datalayout = "e-m:e-p270:32:32-p271:32:32-p272:64:64-i64:64-i128:128-f80:128-n8:16:32:64-S128"
target triple = "x86_64-pc-linux-gnu"

%struct.hb_paint_funcs_t = type { %struct.hb_object_header_t, %struct.anon, ptr, ptr }
%struct.hb_object_header_t = type { %struct.hb_reference_count_t, %struct.hb_atomic_int_t, %struct.hb_atomic_ptr_t }
%struct.hb_reference_count_t = type { %struct.hb_atomic_int_t }
%struct.hb_atomic_int_t = type { i32 }
%struct.hb_atomic_ptr_t = type { ptr }
%struct.anon = type { ptr, ptr, ptr, ptr, ptr, ptr, ptr, ptr, ptr, ptr, ptr, ptr, ptr, ptr }
%struct.anon.1 = type { ptr, ptr, ptr, ptr, ptr, ptr, ptr, ptr, ptr, ptr, ptr, ptr, ptr, ptr }

; Function Attrs: mustprogress uwtable
define linkonce_odr hidden void @_ZN16hb_paint_funcs_t8pop_clipEPv(ptr noundef nonnull align 8 dereferenceable(144) %0, ptr noundef %1) #0 comdat align 2 {
  %3 = alloca ptr, align 8
  %4 = alloca ptr, align 8
  store ptr %0, ptr %3, align 8
  store ptr %1, ptr %4, align 8
  %5 = load ptr, ptr %3, align 8
  %6 = getelementptr inbounds %struct.hb_paint_funcs_t, ptr %5, i32 0, i32 1
  %7 = getelementptr inbounds %struct.anon, ptr %6, i32 0, i32 5
  %8 = load ptr, ptr %7, align 8
  %9 = load ptr, ptr %4, align 8
  %10 = getelementptr inbounds %struct.hb_paint_funcs_t, ptr %5, i32 0, i32 2
  %11 = load ptr, ptr %10, align 8
  %12 = icmp ne ptr %11, null
  br i1 %12, label %14, label %13

13:                                               ; preds = %2
  br label %19

14:                                               ; preds = %2
  %15 = getelementptr inbounds %struct.hb_paint_funcs_t, ptr %5, i32 0, i32 2
  %16 = load ptr, ptr %15, align 8
  %17 = getelementptr inbounds %struct.anon.1, ptr %16, i32 0, i32 5
  %18 = load ptr, ptr %17, align 8
  br label %19

19:                                               ; preds = %14, %13
  %20 = phi ptr [ null, %13 ], [ %18, %14 ]
  call void %8(ptr noundef %5, ptr noundef %9, ptr noundef %20)
  ret void
}

; Function Attrs: mustprogress uwtable
define hidden void @hb_paint_pop_clip(ptr noundef %0, ptr noundef %1) #0 {
  %3 = alloca ptr, align 8
  %4 = alloca ptr, align 8
  store ptr %0, ptr %3, align 8
  store ptr %1, ptr %4, align 8
  %5 = load ptr, ptr %3, align 8
  %6 = load ptr, ptr %4, align 8
  call void @_ZN16hb_paint_funcs_t8pop_clipEPv(ptr noundef nonnull align 8 dereferenceable(144) %5, ptr noundef %6)
  ret void
}