; Function Attrs: mustprogress uwtable
define hidden void @hb_paint_pop_clip(ptr noundef %0, ptr noundef %1) local_unnamed_addr #0 {
  %3 = getelementptr inbounds i8, ptr %0, i64 56
  %4 = load ptr, ptr %3, align 8
  %5 = getelementptr inbounds i8, ptr %0, i64 128
  %6 = load ptr, ptr %5, align 8
  %.not.i = icmp eq ptr %6, null
  br i1 %.not.i, label %_ZN16hb_paint_funcs_t8pop_clipEPv.exit, label %7

7:                                                ; preds = %2
  %8 = getelementptr inbounds i8, ptr %6, i64 40
  %9 = load ptr, ptr %8, align 8
  br label %_ZN16hb_paint_funcs_t8pop_clipEPv.exit

_ZN16hb_paint_funcs_t8pop_clipEPv.exit:           ; preds = %2, %7
  %10 = phi ptr [ %9, %7 ], [ null, %2 ]
  tail call void %4(ptr noundef nonnull %0, ptr noundef %1, ptr noundef %10)
  ret void
}